target datalayout = "e-m:e-p270:32:32-p271:32:32-p272:64:64-i64:64-i128:128-f80:128-n8:16:32:64-S128"
target triple = "x86_64-pc-linux-gnu"

; Function Attrs: mustprogress nounwind uwtable
define linkonce_odr void @_Z7evalArcffffffffPf(float noundef %0, float noundef %1, float noundef %2, float noundef %3, float noundef %4, float noundef %5, float noundef %6, float noundef %7, ptr noundef %8) #0 comdat {
  %10 = alloca float, align 4
  %11 = alloca float, align 4
  %12 = alloca float, align 4
  %13 = alloca float, align 4
  %14 = alloca float, align 4
  %15 = alloca float, align 4
  %16 = alloca float, align 4
  %17 = alloca float, align 4
  %18 = alloca ptr, align 8
  store float %0, ptr %10, align 4
  store float %1, ptr %11, align 4
  store float %2, ptr %12, align 4
  store float %3, ptr %13, align 4
  store float %4, ptr %14, align 4
  store float %5, ptr %15, align 4
  store float %6, ptr %16, align 4
  store float %7, ptr %17, align 4
  store ptr %8, ptr %18, align 8
  %19 = load float, ptr %10, align 4
  %20 = load float, ptr %13, align 4
  %21 = load float, ptr %17, align 4
  %22 = call float @llvm.fmuladd.f32(float %20, float %21, float %19)
  %23 = load ptr, ptr %18, align 8
  %24 = getelementptr inbounds float, ptr %23, i64 0
  store float %22, ptr %24, align 4
  %25 = load float, ptr %11, align 4
  %26 = load float, ptr %14, align 4
  %27 = load float, ptr %17, align 4
  %28 = call float @llvm.fmuladd.f32(float %26, float %27, float %25)
  %29 = load float, ptr %16, align 4
  %30 = load float, ptr %17, align 4
  %31 = call float @llvm.fmuladd.f32(float %30, float 2.000000e+00, float -1.000000e+00)
  %32 = load float, ptr %17, align 4
  %33 = call float @llvm.fmuladd.f32(float %32, float 2.000000e+00, float -1.000000e+00)
  %34 = fneg float %31
  %35 = call float @llvm.fmuladd.f32(float %34, float %33, float 1.000000e+00)
  %36 = call float @llvm.fmuladd.f32(float %29, float %35, float %28)
  %37 = load ptr, ptr %18, align 8
  %38 = getelementptr inbounds float, ptr %37, i64 1
  store float %36, ptr %38, align 4
  %39 = load float, ptr %12, align 4
  %40 = load float, ptr %15, align 4
  %41 = load float, ptr %17, align 4
  %42 = call float @llvm.fmuladd.f32(float %40, float %41, float %39)
  %43 = load ptr, ptr %18, align 8
  %44 = getelementptr inbounds float, ptr %43, i64 2
  store float %42, ptr %44, align 4
  ret void
}

; Function Attrs: mustprogress uwtable
define void @_Z11duAppendArcP11duDebugDrawfffffffffj(ptr noundef %0, float noundef %1, float noundef %2, float noundef %3, float noundef %4, float noundef %5, float noundef %6, float noundef %7, float noundef %8, float noundef %9, i32 noundef %10) #2 {
  %12 = alloca ptr, align 8
  %13 = alloca float, align 4
  %14 = alloca float, align 4
  %15 = alloca float, align 4
  %16 = alloca float, align 4
  %17 = alloca float, align 4
  %18 = alloca float, align 4
  %19 = alloca float, align 4
  %20 = alloca float, align 4
  %21 = alloca float, align 4
  %22 = alloca i32, align 4
  %23 = alloca float, align 4
  %24 = alloca float, align 4
  %25 = alloca float, align 4
  %26 = alloca float, align 4
  %27 = alloca [3 x float], align 4
  %28 = alloca i32, align 4
  %29 = alloca float, align 4
  %30 = alloca [3 x float], align 4
  %31 = alloca [3 x float], align 4
  %32 = alloca [3 x float], align 4
  %33 = alloca [3 x float], align 4
  %34 = alloca [3 x float], align 4
  store ptr %0, ptr %12, align 8
  store float %1, ptr %13, align 4
  store float %2, ptr %14, align 4
  store float %3, ptr %15, align 4
  store float %4, ptr %16, align 4
  store float %5, ptr %17, align 4
  store float %6, ptr %18, align 4
  store float %7, ptr %19, align 4
  store float %8, ptr %20, align 4
  store float %9, ptr %21, align 4
  store i32 %10, ptr %22, align 4
  %35 = load ptr, ptr %12, align 8
  %36 = icmp ne ptr %35, null
  br i1 %36, label %38, label %37

37:                                               ; preds = %11
  br label %178

38:                                               ; preds = %11
  %39 = load float, ptr %16, align 4
  %40 = load float, ptr %13, align 4
  %41 = fsub float %39, %40
  store float %41, ptr %23, align 4
  %42 = load float, ptr %17, align 4
  %43 = load float, ptr %14, align 4
  %44 = fsub float %42, %43
  store float %44, ptr %24, align 4
  %45 = load float, ptr %18, align 4
  %46 = load float, ptr %15, align 4
  %47 = fsub float %45, %46
  store float %47, ptr %25, align 4
  %48 = load float, ptr %23, align 4
  %49 = load float, ptr %23, align 4
  %50 = load float, ptr %24, align 4
  %51 = load float, ptr %24, align 4
  %52 = fmul float %50, %51
  %53 = call float @llvm.fmuladd.f32(float %48, float %49, float %52)
  %54 = load float, ptr %25, align 4
  %55 = load float, ptr %25, align 4
  %56 = call float @llvm.fmuladd.f32(float %54, float %55, float %53)
  %57 = call float @sqrtf(float noundef %56) #9
  store float %57, ptr %26, align 4
  %58 = load float, ptr %13, align 4
  %59 = load float, ptr %14, align 4
  %60 = load float, ptr %15, align 4
  %61 = load float, ptr %23, align 4
  %62 = load float, ptr %24, align 4
  %63 = load float, ptr %25, align 4
  %64 = load float, ptr %26, align 4
  %65 = load float, ptr %19, align 4
  %66 = fmul float %64, %65
  %67 = getelementptr inbounds [3 x float], ptr %27, i64 0, i64 0
  call void @_Z7evalArcffffffffPf(float noundef %58, float noundef %59, float noundef %60, float noundef %61, float noundef %62, float noundef %63, float noundef %66, float noundef 0x3FA99999A0000000, ptr noundef %67)
  store i32 1, ptr %28, align 4
  br label %68

68:                                               ; preds = %117, %38
  %69 = load i32, ptr %28, align 4
  %70 = icmp sle i32 %69, 8
  br i1 %70, label %71, label %120

71:                                               ; preds = %68
  %72 = load i32, ptr %28, align 4
  %73 = sitofp i32 %72 to float
  %74 = call float @llvm.fmuladd.f32(float %73, float 0x3FBCCCCCC0000000, float 0x3FA99999A0000000)
  store float %74, ptr %29, align 4
  %75 = load float, ptr %13, align 4
  %76 = load float, ptr %14, align 4
  %77 = load float, ptr %15, align 4
  %78 = load float, ptr %23, align 4
  %79 = load float, ptr %24, align 4
  %80 = load float, ptr %25, align 4
  %81 = load float, ptr %26, align 4
  %82 = load float, ptr %19, align 4
  %83 = fmul float %81, %82
  %84 = load float, ptr %29, align 4
  %85 = getelementptr inbounds [3 x float], ptr %30, i64 0, i64 0
  call void @_Z7evalArcffffffffPf(float noundef %75, float noundef %76, float noundef %77, float noundef %78, float noundef %79, float noundef %80, float noundef %83, float noundef %84, ptr noundef %85)
  %86 = load ptr, ptr %12, align 8
  %87 = getelementptr inbounds [3 x float], ptr %27, i64 0, i64 0
  %88 = load float, ptr %87, align 4
  %89 = getelementptr inbounds [3 x float], ptr %27, i64 0, i64 1
  %90 = load float, ptr %89, align 4
  %91 = getelementptr inbounds [3 x float], ptr %27, i64 0, i64 2
  %92 = load float, ptr %91, align 4
  %93 = load i32, ptr %22, align 4
  %94 = load ptr, ptr %86, align 8
  %95 = getelementptr inbounds ptr, ptr %94, i64 6
  %96 = load ptr, ptr %95, align 8
  call void %96(ptr noundef nonnull align 8 dereferenceable(8) %86, float noundef %88, float noundef %90, float noundef %92, i32 noundef %93)
  %97 = load ptr, ptr %12, align 8
  %98 = getelementptr inbounds [3 x float], ptr %30, i64 0, i64 0
  %99 = load float, ptr %98, align 4
  %100 = getelementptr inbounds [3 x float], ptr %30, i64 0, i64 1
  %101 = load float, ptr %100, align 4
  %102 = getelementptr inbounds [3 x float], ptr %30, i64 0, i64 2
  %103 = load float, ptr %102, align 4
  %104 = load i32, ptr %22, align 4
  %105 = load ptr, ptr %97, align 8
  %106 = getelementptr inbounds ptr, ptr %105, i64 6
  %107 = load ptr, ptr %106, align 8
  call void %107(ptr noundef nonnull align 8 dereferenceable(8) %97, float noundef %99, float noundef %101, float noundef %103, i32 noundef %104)
  %108 = getelementptr inbounds [3 x float], ptr %30, i64 0, i64 0
  %109 = load float, ptr %108, align 4
  %110 = getelementptr inbounds [3 x float], ptr %27, i64 0, i64 0
  store float %109, ptr %110, align 4
  %111 = getelementptr inbounds [3 x float], ptr %30, i64 0, i64 1
  %112 = load float, ptr %111, align 4
  %113 = getelementptr inbounds [3 x float], ptr %27, i64 0, i64 1
  store float %112, ptr %113, align 4
  %114 = getelementptr inbounds [3 x float], ptr %30, i64 0, i64 2
  %115 = load float, ptr %114, align 4
  %116 = getelementptr inbounds [3 x float], ptr %27, i64 0, i64 2
  store float %115, ptr %116, align 4
  br label %117

117:                                              ; preds = %71
  %118 = load i32, ptr %28, align 4
  %119 = add nsw i32 %118, 1
  store i32 %119, ptr %28, align 4
  br label %68, !llvm.loop !8

120:                                              ; preds = %68
  %121 = load float, ptr %20, align 4
  %122 = fcmp ogt float %121, 0x3F50624DE0000000
  br i1 %122, label %123, label %149

123:                                              ; preds = %120
  %124 = load float, ptr %13, align 4
  %125 = load float, ptr %14, align 4
  %126 = load float, ptr %15, align 4
  %127 = load float, ptr %23, align 4
  %128 = load float, ptr %24, align 4
  %129 = load float, ptr %25, align 4
  %130 = load float, ptr %26, align 4
  %131 = load float, ptr %19, align 4
  %132 = fmul float %130, %131
  %133 = getelementptr inbounds [3 x float], ptr %31, i64 0, i64 0
  call void @_Z7evalArcffffffffPf(float noundef %124, float noundef %125, float noundef %126, float noundef %127, float noundef %128, float noundef %129, float noundef %132, float noundef 0x3FA99999A0000000, ptr noundef %133)
  %134 = load float, ptr %13, align 4
  %135 = load float, ptr %14, align 4
  %136 = load float, ptr %15, align 4
  %137 = load float, ptr %23, align 4
  %138 = load float, ptr %24, align 4
  %139 = load float, ptr %25, align 4
  %140 = load float, ptr %26, align 4
  %141 = load float, ptr %19, align 4
  %142 = fmul float %140, %141
  %143 = getelementptr inbounds [3 x float], ptr %32, i64 0, i64 0
  call void @_Z7evalArcffffffffPf(float noundef %134, float noundef %135, float noundef %136, float noundef %137, float noundef %138, float noundef %139, float noundef %142, float noundef 0x3FB99999A0000000, ptr noundef %143)
  %144 = load ptr, ptr %12, align 8
  %145 = getelementptr inbounds [3 x float], ptr %31, i64 0, i64 0
  %146 = getelementptr inbounds [3 x float], ptr %32, i64 0, i64 0
  %147 = load float, ptr %20, align 4
  %148 = load i32, ptr %22, align 4
  call void @_Z15appendArrowHeadP11duDebugDrawPKfS2_fj(ptr noundef %144, ptr noundef %145, ptr noundef %146, float noundef %147, i32 noundef %148)
  br label %149

149:                                              ; preds = %123, %120
  %150 = load float, ptr %21, align 4
  %151 = fcmp ogt float %150, 0x3F50624DE0000000
  br i1 %151, label %152, label %178

152:                                              ; preds = %149
  %153 = load float, ptr %13, align 4
  %154 = load float, ptr %14, align 4
  %155 = load float, ptr %15, align 4
  %156 = load float, ptr %23, align 4
  %157 = load float, ptr %24, align 4
  %158 = load float, ptr %25, align 4
  %159 = load float, ptr %26, align 4
  %160 = load float, ptr %19, align 4
  %161 = fmul float %159, %160
  %162 = getelementptr inbounds [3 x float], ptr %33, i64 0, i64 0
  call void @_Z7evalArcffffffffPf(float noundef %153, float noundef %154, float noundef %155, float noundef %156, float noundef %157, float noundef %158, float noundef %161, float noundef 0x3FEE666660000000, ptr noundef %162)
  %163 = load float, ptr %13, align 4
  %164 = load float, ptr %14, align 4
  %165 = load float, ptr %15, align 4
  %166 = load float, ptr %23, align 4
  %167 = load float, ptr %24, align 4
  %168 = load float, ptr %25, align 4
  %169 = load float, ptr %26, align 4
  %170 = load float, ptr %19, align 4
  %171 = fmul float %169, %170
  %172 = getelementptr inbounds [3 x float], ptr %34, i64 0, i64 0
  call void @_Z7evalArcffffffffPf(float noundef %163, float noundef %164, float noundef %165, float noundef %166, float noundef %167, float noundef %168, float noundef %171, float noundef 0x3FECCCCCC0000000, ptr noundef %172)
  %173 = load ptr, ptr %12, align 8
  %174 = getelementptr inbounds [3 x float], ptr %33, i64 0, i64 0
  %175 = getelementptr inbounds [3 x float], ptr %34, i64 0, i64 0
  %176 = load float, ptr %21, align 4
  %177 = load i32, ptr %22, align 4
  call void @_Z15appendArrowHeadP11duDebugDrawPKfS2_fj(ptr noundef %173, ptr noundef %174, ptr noundef %175, float noundef %176, i32 noundef %177)
  br label %178

178:                                              ; preds = %152, %149, %37
  ret void
}